target datalayout = "e-m:e-p270:32:32-p271:32:32-p272:64:64-i64:64-i128:128-f80:128-n8:16:32:64-S128"
target triple = "x86_64-pc-linux-gnu"

%struct.shape_desc = type { ptr, ptr, ptr, i8 }

@UserShape = internal global ptr null, align 8
@N_UserShape = internal global i64 0, align 8

; Function Attrs: inlinehint nounwind uwtable
define internal zeroext i1 @streq(ptr noundef %0, ptr noundef %1) #5 {
  %3 = alloca ptr, align 8
  %4 = alloca ptr, align 8
  store ptr %0, ptr %3, align 8, !tbaa !75
  store ptr %1, ptr %4, align 8, !tbaa !75
  %5 = load ptr, ptr %3, align 8, !tbaa !75
  %6 = load ptr, ptr %4, align 8, !tbaa !75
  %7 = call i32 @strcmp(ptr noundef %5, ptr noundef %6) #17
  %8 = icmp eq i32 %7, 0
  ret i1 %8
}

; Function Attrs: nounwind uwtable
define ptr @find_user_shape(ptr noundef %0) #0 {
  %2 = alloca ptr, align 8
  %3 = alloca ptr, align 8
  %4 = alloca i64, align 8
  %5 = alloca i32, align 4
  store ptr %0, ptr %3, align 8, !tbaa !75
  %6 = load ptr, ptr @UserShape, align 8, !tbaa !127
  %7 = icmp ne ptr %6, null
  br i1 %7, label %8, label %35

8:                                                ; preds = %1
  call void @llvm.lifetime.start.p0(i64 8, ptr %4) #13
  store i64 0, ptr %4, align 8, !tbaa !10
  br label %9

9:                                                ; preds = %29, %8
  %10 = load i64, ptr %4, align 8, !tbaa !10
  %11 = load i64, ptr @N_UserShape, align 8, !tbaa !10
  %12 = icmp ult i64 %10, %11
  br i1 %12, label %14, label %13

13:                                               ; preds = %9
  store i32 2, ptr %5, align 4
  br label %32

14:                                               ; preds = %9
  %15 = load ptr, ptr @UserShape, align 8, !tbaa !127
  %16 = load i64, ptr %4, align 8, !tbaa !10
  %17 = getelementptr inbounds nuw ptr, ptr %15, i64 %16
  %18 = load ptr, ptr %17, align 8, !tbaa !53
  %19 = getelementptr inbounds nuw %struct.shape_desc, ptr %18, i32 0, i32 0
  %20 = load ptr, ptr %19, align 8, !tbaa !95
  %21 = load ptr, ptr %3, align 8, !tbaa !75
  %22 = call zeroext i1 @streq(ptr noundef %20, ptr noundef %21)
  br i1 %22, label %23, label %28

23:                                               ; preds = %14
  %24 = load ptr, ptr @UserShape, align 8, !tbaa !127
  %25 = load i64, ptr %4, align 8, !tbaa !10
  %26 = getelementptr inbounds nuw ptr, ptr %24, i64 %25
  %27 = load ptr, ptr %26, align 8, !tbaa !53
  store ptr %27, ptr %2, align 8
  store i32 1, ptr %5, align 4
  br label %32

28:                                               ; preds = %14
  br label %29

29:                                               ; preds = %28
  %30 = load i64, ptr %4, align 8, !tbaa !10
  %31 = add i64 %30, 1
  store i64 %31, ptr %4, align 8, !tbaa !10
  br label %9, !llvm.loop !129

32:                                               ; preds = %23, %13
  call void @llvm.lifetime.end.p0(i64 8, ptr %4) #13
  %33 = load i32, ptr %5, align 4
  switch i32 %33, label %38 [
    i32 2, label %34
    i32 1, label %36
  ]

34:                                               ; preds = %32
  br label %35

35:                                               ; preds = %34, %1
  store ptr null, ptr %2, align 8
  br label %36

36:                                               ; preds = %35, %32
  %37 = load ptr, ptr %2, align 8
  ret ptr %37

38:                                               ; preds = %32
  unreachable
}