; Function Attrs: nofree nounwind memory(read, inaccessiblemem: none) uwtable
define noundef ptr @find_user_shape(ptr noundef readonly captures(none) %0) local_unnamed_addr #12 {
  %2 = load ptr, ptr @UserShape, align 8, !tbaa !109
  %.not = icmp eq ptr %2, null
  br i1 %.not, label %.thread, label %.preheader

.preheader:                                       ; preds = %1
  %3 = load i64, ptr @N_UserShape, align 8, !tbaa !111
  %.not15 = icmp eq i64 %3, 0
  br i1 %.not15, label %.thread, label %.lr.ph

4:                                                ; preds = %.lr.ph
  %5 = add nuw i64 %.0612, 1
  %exitcond.not = icmp eq i64 %5, %3
  br i1 %exitcond.not, label %.thread, label %.lr.ph, !llvm.loop !112

.lr.ph:                                           ; preds = %.preheader, %4
  %.0612 = phi i64 [ %5, %4 ], [ 0, %.preheader ]
  %6 = getelementptr inbounds nuw ptr, ptr %2, i64 %.0612
  %7 = load ptr, ptr %6, align 8, !tbaa !113
  %8 = load ptr, ptr %7, align 8, !tbaa !79
  %9 = tail call i32 @strcmp(ptr noundef nonnull readonly dereferenceable(1) %8, ptr noundef nonnull readonly dereferenceable(1) %0) #31
  %10 = icmp eq i32 %9, 0
  br i1 %10, label %.thread, label %4

.thread:                                          ; preds = %4, %.lr.ph, %.preheader, %1
  %.1 = phi ptr [ null, %1 ], [ null, %.preheader ], [ null, %4 ], [ %7, %.lr.ph ]
  ret ptr %.1
}